; Function Attrs: mustprogress uwtable
define dso_local void @_ZN29btGeneric6DofSpringConstraint19setEquilibriumPointEv(ptr noundef nonnull align 8 dereferenceable(1412) %this) local_unnamed_addr #1 align 2 {
entry:
  tail call void @_ZN23btGeneric6DofConstraint19calculateTransformsEv(ptr noundef nonnull align 8 dereferenceable(1333) %this)
  %m_calculatedLinearDiff = getelementptr inbounds i8, ptr %this, i64 1280
  %m_equilibriumPoint = getelementptr inbounds i8, ptr %this, i64 1340
  br label %for.body

for.cond4.preheader:                              ; preds = %for.body
  %m_calculatedAxisAngleDiff = getelementptr inbounds i8, ptr %this, i64 1216
  br label %for.body6

for.body:                                         ; preds = %entry, %for.body
  %indvars.iv = phi i64 [ 0, %entry ], [ %indvars.iv.next, %for.body ]
  %arrayidx = getelementptr inbounds float, ptr %m_calculatedLinearDiff, i64 %indvars.iv
  %0 = load float, ptr %arrayidx, align 4
  %arrayidx3 = getelementptr inbounds [6 x float], ptr %m_equilibriumPoint, i64 0, i64 %indvars.iv
  store float %0, ptr %arrayidx3, align 4
  %indvars.iv.next = add nuw nsw i64 %indvars.iv, 1
  %exitcond.not = icmp eq i64 %indvars.iv.next, 3
  br i1 %exitcond.not, label %for.cond4.preheader, label %for.body, !llvm.loop !7

for.body6:                                        ; preds = %for.cond4.preheader, %for.body6
  %indvars.iv11 = phi i64 [ 0, %for.cond4.preheader ], [ %indvars.iv.next12, %for.body6 ]
  %arrayidx9 = getelementptr inbounds float, ptr %m_calculatedAxisAngleDiff, i64 %indvars.iv11
  %1 = load float, ptr %arrayidx9, align 4
  %2 = add nuw nsw i64 %indvars.iv11, 3
  %arrayidx12 = getelementptr inbounds [6 x float], ptr %m_equilibriumPoint, i64 0, i64 %2
  store float %1, ptr %arrayidx12, align 4
  %indvars.iv.next12 = add nuw nsw i64 %indvars.iv11, 1
  %exitcond15.not = icmp eq i64 %indvars.iv.next12, 3
  br i1 %exitcond15.not, label %for.end15, label %for.body6, !llvm.loop !8

for.end15:                                        ; preds = %for.body6
  ret void
}